(dp0
VpendingRemovesSet
p1
c__builtin__
set
p2
((lp3
tp4
Rp5
sVpendingInstallsSet
p6
g2
((lp7
tp8
Rp9
sVdisabledAddons
p10
g2
((lp11
Vunspoken
p12
atp13
Rp14
sVpendingEnableSet
p15
g2
((lp16
tp17
Rp18
sVpendingDisableSet
p19
g2
((lp20
tp21
Rp22
sVoverrideCompatibility
p23
g2
((lp24
Vocr
p25
aVindentnav
p26
atp27
Rp28
sVblocked
p29
g2
((lp30
tp31
Rp32
sVbackCompatToAPIVersion
p33
(I2023
I1
I0
tp34
s.