(dp0
VlastCheck
p1
F1703010619.244784
sVdontRemindVersion
p2
V2023.3
p3
sVpendingUpdateFile
p4
NsVpendingUpdateVersion
p5
NsVpendingUpdateAPIVersion
p6
(I0
I0
I0
tp7
sVpendingUpdateBackCompatToAPIVersion
p8
g7
s.