(dp0
VlastCheck
p1
F1710333508.0096836
sVdontRemindVersion
p2
V2023.3.4
p3
sVpendingUpdateFile
p4
NsVpendingUpdateVersion
p5
NsVpendingUpdateAPIVersion
p6
(I0
I0
I0
tp7
sVpendingUpdateBackCompatToAPIVersion
p8
g7
s.